; Function Attrs: nounwind uwtable
define internal void @SSL_context_free(ptr noundef %0, i32 noundef %1) #0 {
  %3 = and i32 %1, 1
  %.not = icmp eq i32 %3, 0
  br i1 %.not, label %5, label %4

4:                                                ; preds = %2
  tail call void @SSL_free(ptr noundef %0) #5
  br label %5

5:                                                ; preds = %4, %2
  ret void
}